; Function Attrs: nounwind uwtable
define void @Bnd_ManMerge(i32 noundef %0, i32 noundef %1, i32 noundef %2) local_unnamed_addr #1 {
  %4 = load ptr, ptr @pBnd, align 8
  %5 = getelementptr inbounds nuw i8, ptr %4, i64 88
  %6 = load ptr, ptr %5, align 8
  %7 = getelementptr inbounds nuw i8, ptr %4, i64 96
  %8 = load ptr, ptr %7, align 8
  %9 = getelementptr inbounds nuw i8, ptr %4, i64 112
  %10 = load ptr, ptr %9, align 8
  %11 = getelementptr i8, ptr %6, i64 8
  %.val43 = load ptr, ptr %11, align 8
  %12 = sext i32 %0 to i64
  %13 = getelementptr inbounds ptr, ptr %.val43, i64 %12
  %14 = load ptr, ptr %13, align 8
  %15 = getelementptr i8, ptr %8, i64 8
  %.val42 = load ptr, ptr %15, align 8
  %16 = getelementptr inbounds ptr, ptr %.val42, i64 %12
  %17 = load ptr, ptr %16, align 8
  %18 = sext i32 %1 to i64
  %19 = getelementptr inbounds ptr, ptr %.val43, i64 %18
  %20 = load ptr, ptr %19, align 8
  %21 = getelementptr inbounds ptr, ptr %.val42, i64 %18
  %22 = load ptr, ptr %21, align 8
  %23 = getelementptr i8, ptr %20, i64 4
  %.val56 = load i32, ptr %23, align 4
  %24 = icmp sgt i32 %.val56, 0
  br i1 %24, label %.lr.ph, label %.critedge.preheader

.lr.ph:                                           ; preds = %3
  %25 = getelementptr i8, ptr %20, i64 8
  %26 = getelementptr inbounds nuw i8, ptr %14, i64 4
  %.phi.trans.insert.i = getelementptr inbounds nuw i8, ptr %14, i64 8
  br label %31

.critedge.preheader:                              ; preds = %Vec_IntPush.exit, %3
  %27 = getelementptr i8, ptr %22, i64 4
  %.val3858 = load i32, ptr %27, align 4
  %28 = icmp sgt i32 %.val3858, 0
  br i1 %28, label %.lr.ph60, label %.critedge2

.lr.ph60:                                         ; preds = %.critedge.preheader
  %29 = getelementptr i8, ptr %22, i64 8
  %30 = getelementptr inbounds nuw i8, ptr %17, i64 4
  %.phi.trans.insert.i49 = getelementptr inbounds nuw i8, ptr %17, i64 8
  br label %64

31:                                               ; preds = %.lr.ph, %Vec_IntPush.exit
  %indvars.iv = phi i64 [ 0, %.lr.ph ], [ %indvars.iv.next, %Vec_IntPush.exit ]
  %.val44 = load ptr, ptr %25, align 8
  %32 = getelementptr inbounds nuw i32, ptr %.val44, i64 %indvars.iv
  %33 = load i32, ptr %32, align 4
  %34 = load i32, ptr %26, align 4
  %35 = load i32, ptr %14, align 8
  %36 = icmp eq i32 %34, %35
  br i1 %36, label %37, label %.Vec_IntGrow.exit10_crit_edge.i

.Vec_IntGrow.exit10_crit_edge.i:                  ; preds = %31
  %.pre.i = load ptr, ptr %.phi.trans.insert.i, align 8
  br label %Vec_IntPush.exit

37:                                               ; preds = %31
  %38 = icmp slt i32 %34, 16
  br i1 %38, label %39, label %46

39:                                               ; preds = %37
  %40 = load ptr, ptr %.phi.trans.insert.i, align 8
  %.not9.i.i = icmp eq ptr %40, null
  br i1 %.not9.i.i, label %43, label %41

41:                                               ; preds = %39
  %42 = tail call dereferenceable_or_null(64) ptr @realloc(ptr noundef nonnull %40, i64 noundef 64) #19
  br label %Vec_IntGrow.exit.i

43:                                               ; preds = %39
  %44 = tail call noalias dereferenceable_or_null(64) ptr @malloc(i64 noundef 64) #18
  br label %Vec_IntGrow.exit.i

Vec_IntGrow.exit.i:                               ; preds = %43, %41
  %45 = phi ptr [ %42, %41 ], [ %44, %43 ]
  store ptr %45, ptr %.phi.trans.insert.i, align 8
  store i32 16, ptr %14, align 8
  br label %Vec_IntPush.exit

46:                                               ; preds = %37
  %47 = shl nuw nsw i32 %34, 1
  %48 = load ptr, ptr %.phi.trans.insert.i, align 8
  %.not9.i9.i = icmp eq ptr %48, null
  %49 = zext nneg i32 %47 to i64
  %50 = shl nuw nsw i64 %49, 2
  br i1 %.not9.i9.i, label %53, label %51

51:                                               ; preds = %46
  %52 = tail call ptr @realloc(ptr noundef nonnull %48, i64 noundef %50) #19
  br label %55

53:                                               ; preds = %46
  %54 = tail call noalias ptr @malloc(i64 noundef %50) #18
  br label %55

55:                                               ; preds = %53, %51
  %56 = phi ptr [ %52, %51 ], [ %54, %53 ]
  store ptr %56, ptr %.phi.trans.insert.i, align 8
  store i32 %47, ptr %14, align 8
  br label %Vec_IntPush.exit

Vec_IntPush.exit:                                 ; preds = %.Vec_IntGrow.exit10_crit_edge.i, %Vec_IntGrow.exit.i, %55
  %57 = phi ptr [ %.pre.i, %.Vec_IntGrow.exit10_crit_edge.i ], [ %56, %55 ], [ %45, %Vec_IntGrow.exit.i ]
  %58 = load i32, ptr %26, align 4
  %59 = add nsw i32 %58, 1
  store i32 %59, ptr %26, align 4
  %60 = sext i32 %58 to i64
  %61 = getelementptr inbounds i32, ptr %57, i64 %60
  store i32 %33, ptr %61, align 4
  %indvars.iv.next = add nuw nsw i64 %indvars.iv, 1
  %.val = load i32, ptr %23, align 4
  %62 = sext i32 %.val to i64
  %63 = icmp slt i64 %indvars.iv.next, %62
  br i1 %63, label %31, label %.critedge.preheader, !llvm.loop !11

64:                                               ; preds = %.lr.ph60, %Vec_IntPush.exit54
  %indvars.iv65 = phi i64 [ 0, %.lr.ph60 ], [ %indvars.iv.next66, %Vec_IntPush.exit54 ]
  %.val45 = load ptr, ptr %29, align 8
  %65 = getelementptr inbounds nuw i32, ptr %.val45, i64 %indvars.iv65
  %66 = load i32, ptr %65, align 4
  %67 = load i32, ptr %30, align 4
  %68 = load i32, ptr %17, align 8
  %69 = icmp eq i32 %67, %68
  br i1 %69, label %70, label %.Vec_IntGrow.exit10_crit_edge.i48

.Vec_IntGrow.exit10_crit_edge.i48:                ; preds = %64
  %.pre.i50 = load ptr, ptr %.phi.trans.insert.i49, align 8
  br label %Vec_IntPush.exit54

70:                                               ; preds = %64
  %71 = icmp slt i32 %67, 16
  br i1 %71, label %72, label %79

72:                                               ; preds = %70
  %73 = load ptr, ptr %.phi.trans.insert.i49, align 8
  %.not9.i.i52 = icmp eq ptr %73, null
  br i1 %.not9.i.i52, label %76, label %74

74:                                               ; preds = %72
  %75 = tail call dereferenceable_or_null(64) ptr @realloc(ptr noundef nonnull %73, i64 noundef 64) #19
  br label %Vec_IntGrow.exit.i53

76:                                               ; preds = %72
  %77 = tail call noalias dereferenceable_or_null(64) ptr @malloc(i64 noundef 64) #18
  br label %Vec_IntGrow.exit.i53

Vec_IntGrow.exit.i53:                             ; preds = %76, %74
  %78 = phi ptr [ %75, %74 ], [ %77, %76 ]
  store ptr %78, ptr %.phi.trans.insert.i49, align 8
  store i32 16, ptr %17, align 8
  br label %Vec_IntPush.exit54

79:                                               ; preds = %70
  %80 = shl nuw nsw i32 %67, 1
  %81 = load ptr, ptr %.phi.trans.insert.i49, align 8
  %.not9.i9.i51 = icmp eq ptr %81, null
  %82 = zext nneg i32 %80 to i64
  %83 = shl nuw nsw i64 %82, 2
  br i1 %.not9.i9.i51, label %86, label %84

84:                                               ; preds = %79
  %85 = tail call ptr @realloc(ptr noundef nonnull %81, i64 noundef %83) #19
  br label %88

86:                                               ; preds = %79
  %87 = tail call noalias ptr @malloc(i64 noundef %83) #18
  br label %88

88:                                               ; preds = %86, %84
  %89 = phi ptr [ %85, %84 ], [ %87, %86 ]
  store ptr %89, ptr %.phi.trans.insert.i49, align 8
  store i32 %80, ptr %17, align 8
  br label %Vec_IntPush.exit54

Vec_IntPush.exit54:                               ; preds = %.Vec_IntGrow.exit10_crit_edge.i48, %Vec_IntGrow.exit.i53, %88
  %90 = phi ptr [ %.pre.i50, %.Vec_IntGrow.exit10_crit_edge.i48 ], [ %89, %88 ], [ %78, %Vec_IntGrow.exit.i53 ]
  %91 = load i32, ptr %30, align 4
  %92 = add nsw i32 %91, 1
  store i32 %92, ptr %30, align 4
  %93 = sext i32 %91 to i64
  %94 = getelementptr inbounds i32, ptr %90, i64 %93
  store i32 %66, ptr %94, align 4
  %indvars.iv.next66 = add nuw nsw i64 %indvars.iv65, 1
  %.val38 = load i32, ptr %27, align 4
  %95 = sext i32 %.val38 to i64
  %96 = icmp slt i64 %indvars.iv.next66, %95
  br i1 %96, label %64, label %.critedge2, !llvm.loop !12

.critedge2:                                       ; preds = %Vec_IntPush.exit54, %.critedge.preheader
  %.not = icmp eq i32 %2, 0
  br i1 %.not, label %.critedge4, label %.preheader

.preheader:                                       ; preds = %.critedge2
  %.val3961 = load i32, ptr %23, align 4
  %97 = icmp sgt i32 %.val3961, 0
  br i1 %97, label %.lr.ph63, label %.critedge4

.lr.ph63:                                         ; preds = %.preheader
  %98 = getelementptr i8, ptr %20, i64 8
  %99 = getelementptr i8, ptr %10, i64 8
  br label %100

100:                                              ; preds = %.lr.ph63, %100
  %indvars.iv68 = phi i64 [ 0, %.lr.ph63 ], [ %indvars.iv.next69, %100 ]
  %.val46 = load ptr, ptr %98, align 8
  %101 = getelementptr inbounds nuw i32, ptr %.val46, i64 %indvars.iv68
  %102 = load i32, ptr %101, align 4
  %.val47 = load ptr, ptr %99, align 8
  %103 = ashr i32 %102, 5
  %104 = sext i32 %103 to i64
  %105 = getelementptr inbounds i32, ptr %.val47, i64 %104
  %106 = load i32, ptr %105, align 4
  %107 = and i32 %102, 31
  %108 = lshr i32 %106, %107
  %109 = and i32 %108, 1
  %110 = xor i32 %109, 1
  tail call fastcc void @Vec_BitSetEntry(ptr noundef %10, i32 noundef %102, i32 noundef %110)
  %indvars.iv.next69 = add nuw nsw i64 %indvars.iv68, 1
  %.val39 = load i32, ptr %23, align 4
  %111 = sext i32 %.val39 to i64
  %112 = icmp slt i64 %indvars.iv.next69, %111
  br i1 %112, label %100, label %.critedge4, !llvm.loop !13

.critedge4:                                       ; preds = %100, %.preheader, %.critedge2
  store i32 0, ptr %23, align 4
  store i32 0, ptr %27, align 4
  ret void
}